; Function Attrs: mustprogress uwtable
define hidden noundef zeroext i1 @_ZNK11func_interp9eval_elseEPKP4exprR7obj_refIS0_11ast_managerE(ptr nocapture noundef nonnull readonly align 8 dereferenceable(56) %this, ptr noundef %args, ptr nocapture noundef nonnull align 8 dereferenceable(16) %result) local_unnamed_addr #3 align 2 personality ptr @__gxx_personality_v0 {
entry:
  %s = alloca %class.var_subst, align 8
  %ref.tmp = alloca %class.obj_ref, align 8
  %m_else = getelementptr inbounds i8, ptr %this, i64 24
  %0 = load ptr, ptr %m_else, align 8
  %cmp = icmp ne ptr %0, null
  br i1 %cmp, label %if.end, label %return

if.end:                                           ; preds = %entry
  %1 = load ptr, ptr %this, align 8
  store ptr getelementptr inbounds ({ [4 x ptr] }, ptr @_ZTV12beta_reducer, i64 0, i32 0, i64 2), ptr %s, align 8
  %m_cfg.i.i = getelementptr inbounds i8, ptr %s, i64 536
  call void @_ZN12rewriter_tplI16beta_reducer_cfgEC2ER11ast_managerbRS0_(ptr noundef nonnull align 8 dereferenceable(536) %s, ptr noundef nonnull align 8 dereferenceable(976) %1, i1 noundef zeroext false, ptr noundef nonnull align 1 dereferenceable(1) %m_cfg.i.i)
  store ptr getelementptr inbounds ({ [4 x ptr] }, ptr @_ZTV12beta_reducer, i64 0, i32 0, i64 2), ptr %s, align 8
  %m_std_order.i = getelementptr inbounds i8, ptr %s, i64 544
  store i8 0, ptr %m_std_order.i, align 8
  %2 = load ptr, ptr %m_else, align 8
  %m_arity = getelementptr inbounds i8, ptr %this, i64 8
  %3 = load i32, ptr %m_arity, align 8
  invoke void @_ZN9var_substclEP4exprjPKS1_(ptr nonnull sret(%class.obj_ref) align 8 %ref.tmp, ptr noundef nonnull align 8 dereferenceable(545) %s, ptr noundef %2, i32 noundef %3, ptr noundef %args)
          to label %invoke.cont unwind label %lpad

invoke.cont:                                      ; preds = %if.end
  %4 = load ptr, ptr %result, align 8
  %5 = load ptr, ptr %ref.tmp, align 8
  store ptr %5, ptr %result, align 8
  store ptr %4, ptr %ref.tmp, align 8
  %tobool.not.i.i.i = icmp eq ptr %4, null
  br i1 %tobool.not.i.i.i, label %_ZN7obj_refI4expr11ast_managerED2Ev.exit, label %if.then.i.i.i.i

if.then.i.i.i.i:                                  ; preds = %invoke.cont
  %m_manager.i.i.i = getelementptr inbounds i8, ptr %ref.tmp, i64 8
  %6 = load ptr, ptr %m_manager.i.i.i, align 8
  %m_ref_count.i.i.i.i.i = getelementptr inbounds i8, ptr %4, i64 8
  %7 = load i32, ptr %m_ref_count.i.i.i.i.i, align 4
  %dec.i.i.i.i.i = add i32 %7, -1
  store i32 %dec.i.i.i.i.i, ptr %m_ref_count.i.i.i.i.i, align 4
  %cmp.i.i.i.i = icmp eq i32 %dec.i.i.i.i.i, 0
  br i1 %cmp.i.i.i.i, label %if.then2.i.i.i.i, label %_ZN7obj_refI4expr11ast_managerED2Ev.exit

if.then2.i.i.i.i:                                 ; preds = %if.then.i.i.i.i
  invoke void @_ZN11ast_manager11delete_nodeEP3ast(ptr noundef nonnull align 8 dereferenceable(976) %6, ptr noundef nonnull %4)
          to label %_ZN7obj_refI4expr11ast_managerED2Ev.exit unwind label %terminate.lpad.i

terminate.lpad.i:                                 ; preds = %if.then2.i.i.i.i
  %8 = landingpad { ptr, i32 }
          catch ptr null
  %9 = extractvalue { ptr, i32 } %8, 0
  call void @__clang_call_terminate(ptr %9) #17
  unreachable

_ZN7obj_refI4expr11ast_managerED2Ev.exit:         ; preds = %if.then2.i.i.i.i, %if.then.i.i.i.i, %invoke.cont
  store ptr null, ptr %ref.tmp, align 8
  call void @_ZN12rewriter_tplI16beta_reducer_cfgED2Ev(ptr noundef nonnull align 8 dereferenceable(536) %s) #18
  br label %return

lpad:                                             ; preds = %if.end
  %10 = landingpad { ptr, i32 }
          cleanup
  call void @_ZN12rewriter_tplI16beta_reducer_cfgED2Ev(ptr noundef nonnull align 8 dereferenceable(536) %s) #18
  resume { ptr, i32 } %10

return:                                           ; preds = %entry, %_ZN7obj_refI4expr11ast_managerED2Ev.exit
  ret i1 %cmp
}